Certificate:
    Data:
        Version: 3 (0x2)
        Serial Number: 2 (0x2)
        Signature Algorithm: sha1WithRSAEncryption
        Issuer: DC=com, DC=laboprogsegura.unavarra, O=Peak Engineering and Knowledge (121871), Inc., OU=Peak Root CA, CN=Peak Root CA
        Validity
            Not Before: Dec 26 18:27:18 2020 GMT
            Not After : Dec 26 18:27:18 2022 GMT
        Subject: O=Unknown, OU=Unknown, CN=ligeti
        Subject Public Key Info:
            Public Key Algorithm: dsaEncryption
                pub: 
                    6a:92:c6:41:fa:2a:eb:fd:65:6e:0c:48:96:f3:00:
                    33:21:b9:93:b5:bb:03:7d:05:f7:56:9d:86:c4:83:
                    cf:73:91:be:a5:ac:75:f9:66:57:7c:d9:76:c4:43:
                    92:74:38:9b:25:9b:a5:ba:cf:ce:8d:63:19:90:bb:
                    6c:b5:36:52:36:da:90:75:15:65:9e:0a:33:82:ac:
                    88:0b:30:0e:48:0d:61:fd:69:88:3b:b9:db:25:a7:
                    0d:5c:40:c5:74:b7:3e:8a:c2:20:a4:ef:a4:20:cb:
                    5d:32:fd:3f:a5:d3:8a:4f:d4:d7:fa:72:51:b7:6a:
                    a0:be:97:17:72:ac:93:20:de:08:65:b4:60:5b:f3:
                    16:01:96:b7:e9:e9:fc:69:0f:62:9b:48:65:a0:bc:
                    f9:ab:94:cb:bb:13:15:54:c2:08:dd:85:c1:2a:d0:
                    a3:b0:1d:2d:6f:3c:9a:9f:ec:d6:76:fd:c7:14:31:
                    c0:b9:82:99:0f:66:f3:bc:f7:70:ee:01:28:3d:3b:
                    ed:8f:7c:7f:2b:a5:32:40:af:21:b7:9b:a6:84:66:
                    f4:98:4f:03:e3:a6:a5:29:e6:34:1a:02:b6:e9:a1:
                    7e:f0:4f:e1:1d:6b:a0:33:7a:f8:00:72:52:a8:b6:
                    1c:d9:98:dd:58:06:ef:12:ab:97:7d:23:94:a0:6f:
                    6f
                P:   
                    00:8f:79:35:d9:b9:aa:e9:bf:ab:ed:88:7a:cf:49:
                    51:b6:f3:2e:c5:9e:3b:af:37:18:e8:ea:c4:96:1f:
                    3e:fd:36:06:e7:43:51:a9:c4:18:33:39:b8:09:e7:
                    c2:ae:1c:53:9b:a7:47:5b:85:d0:11:ad:b8:b4:79:
                    87:75:49:84:69:5c:ac:0e:8f:14:b3:36:08:28:a2:
                    2f:fa:27:11:0a:3d:62:a9:93:45:34:09:a0:fe:69:
                    6c:46:58:f8:4b:dd:20:81:9c:37:09:a0:10:57:b1:
                    95:ad:cd:00:23:3d:ba:54:84:b6:29:1f:9d:64:8e:
                    f8:83:44:86:77:97:9c:ec:04:b4:34:a6:ac:2e:75:
                    e9:98:5d:e2:3d:b0:29:2f:c1:11:8c:9f:fa:9d:81:
                    81:e7:33:8d:b7:92:b7:30:d7:b9:e3:49:59:2f:68:
                    09:98:72:15:39:15:ea:3d:6b:8b:46:53:c6:33:45:
                    8f:80:3b:32:a4:c2:e0:f2:72:90:25:6e:4e:3f:8a:
                    3b:08:38:a1:c4:50:e4:e1:8c:1a:29:a3:7d:df:5e:
                    a1:43:de:4b:66:ff:04:90:3e:d5:cf:16:23:e1:58:
                    d4:87:c6:08:e9:7f:21:1c:d8:1d:ca:23:cb:6e:38:
                    07:65:f8:22:e3:42:be:48:4c:05:76:39:39:60:1c:
                    d6:67
                Q:   
                    00:ba:f6:96:a6:85:78:f7:df:de:e7:fa:67:c9:77:
                    c7:85:ef:32:b2:33:ba:e5:80:c0:bc:d5:69:5d
                G:   
                    16:a6:5c:58:20:48:50:70:4e:75:02:a3:97:57:04:
                    0d:34:da:3a:34:78:c1:54:d4:e4:a5:c0:2d:24:2e:
                    e0:4f:96:e6:1e:4b:d0:90:4a:bd:ac:8f:37:ee:b1:
                    e0:9f:31:82:d2:3c:90:43:cb:64:2f:88:00:41:60:
                    ed:f9:ca:09:b3:20:76:a7:9c:32:a6:27:f2:47:3e:
                    91:87:9b:a2:c4:e7:44:bd:20:81:54:4c:b5:5b:80:
                    2c:36:8d:1f:a8:3e:d4:89:e9:4e:0f:a0:68:8e:32:
                    42:8a:5c:78:c4:78:c6:8d:05:27:b7:1c:9a:3a:bb:
                    0b:0b:e1:2c:44:68:96:39:e7:d3:ce:74:db:10:1a:
                    65:aa:2b:87:f6:4c:68:26:db:3e:c7:2f:4b:55:99:
                    83:4b:b4:ed:b0:2f:7c:90:e9:a4:96:d3:a5:5d:53:
                    5b:eb:fc:45:d4:f6:19:f6:3f:3d:ed:bb:87:39:25:
                    c2:f2:24:e0:77:31:29:6d:a8:87:ec:1e:47:48:f8:
                    7e:fb:5f:de:b7:54:84:31:6b:22:32:de:e5:53:dd:
                    af:02:11:2b:0d:1f:02:da:30:97:32:24:fe:27:ae:
                    da:8b:9d:4b:29:22:d9:ba:8b:e3:9e:d9:e1:03:a6:
                    3c:52:81:0b:c6:88:b7:e2:ed:43:16:e1:ef:17:db:
                    de
        X509v3 extensions:
            X509v3 Key Usage: critical
                Digital Signature, Key Encipherment
            X509v3 Basic Constraints: 
                CA:FALSE
            X509v3 Extended Key Usage: 
                TLS Web Client Authentication
            X509v3 Subject Key Identifier: 
                15:E7:FB:F3:E5:C1:69:6D:97:8B:55:DE:1A:E0:94:BE:00:5D:26:7C
            X509v3 Authority Key Identifier: 
                keyid:5B:E6:4E:CE:27:12:F6:98:5F:01:52:D5:C0:D0:D9:8E:F0:32:EF:47

    Signature Algorithm: sha1WithRSAEncryption
         58:5e:fd:24:06:1a:ed:25:ab:5e:0d:36:9c:e5:82:fc:88:7b:
         11:2e:c9:25:19:dd:36:25:5a:7f:73:f3:e4:b7:2f:1b:4b:8e:
         19:3c:90:3d:0a:58:5a:3a:c1:f4:d2:3f:75:93:13:43:8c:7c:
         45:7e:20:9a:5b:2a:4c:74:3a:74:ff:32:fa:61:04:81:f6:ca:
         6d:c7:16:6b:e6:ee:aa:e4:23:d5:7a:d2:76:da:8e:81:e6:51:
         51:de:aa:82:6e:3d:44:7f:42:29:8d:55:72:4b:67:5d:05:1f:
         6f:89:a7:75:d4:e9:bb:c6:39:17:46:9a:53:2f:33:33:6c:dd:
         4e:ae:92:e2:9f:39:78:e5:23:09:0e:00:72:e3:87:fd:f9:a2:
         cc:b4:20:fa:25:33:50:2d:95:7d:cc:17:69:75:d8:7d:15:e0:
         28:b5:85:2c:51:17:0c:a6:7e:42:67:d3:83:64:cc:8c:78:09:
         41:c2:3b:71:b9:77:3b:28:6f:9a:8c:9d:5c:f2:f7:c6:4b:86:
         1f:84:a8:ec:0e:b0:68:8a:4d:2b:7c:16:43:7e:ce:4b:25:ee:
         bc:1e:22:97:44:8c:79:85:a2:7d:15:05:9f:75:d6:85:89:34:
         35:f9:e2:7a:7a:7e:4b:1b:16:d0:eb:58:56:06:9d:02:06:6b:
         a7:e6:36:89:a5:f3:e5:13:1a:35:63:da:90:51:db:e3:c1:3d:
         2f:57:40:92:a1:01:fc:be:f8:2b:7e:f9:94:11:77:2b:01:0e:
         c3:fc:40:c4:7b:d8:a0:9b:ad:68:fe:de:44:27:12:a8:81:69:
         a9:f1:5b:aa:22:73:2d:22:cc:92:46:05:00:40:6b:ec:3c:b3:
         2b:b3:eb:cd:3c:9f:a6:f6:4f:6d:3e:3d:ec:5a:bd:ed:bc:5f:
         ae:55:71:62:6d:03:81:0c:50:b4:60:d4:cd:82:7d:fe:2f:5d:
         13:2d:0d:1a:36:4a:fe:95:33:4a:7c:61:89:f4:c8:1e:63:3c:
         a8:f3:a0:a4:cd:ed:c5:f0:67:b0:af:9a:a7:2b:f0:66:bf:38:
         47:8f:b6:c5:37:8e:ae:5d:dd:46:dc:5f:fa:f8:b5:d9:12:0e:
         cd:e3:a9:38:f5:96:eb:ad:1c:43:84:38:59:16:57:79:14:a1:
         99:53:0d:3d:24:91:cb:a1:cd:8b:dd:0c:00:20:b0:8c:b9:e4:
         73:f5:60:54:58:bc:92:22:55:62:4d:b3:63:cb:5b:23:50:c7:
         37:e9:0f:ef:ea:94:6a:5e:2c:82:fb:9e:ab:4f:0d:37:ec:64:
         21:8e:32:4c:76:4c:5f:21:fd:b1:77:50:27:21:f6:a7:f9:27:
         23:f8:c0:59:71:6c:6f:e7
-----BEGIN CERTIFICATE-----
MIIG5zCCBM+gAwIBAgIBAjANBgkqhkiG9w0BAQUFADCBpDETMBEGCgmSJomT8ixk
ARkWA2NvbTEnMCUGCgmSJomT8ixkARkWF2xhYm9wcm9nc2VndXJhLnVuYXZhcnJh
MTYwNAYDVQQKDC1QZWFrIEVuZ2luZWVyaW5nIGFuZCBLbm93bGVkZ2UgKDEyMTg3
MSksIEluYy4xFTATBgNVBAsMDFBlYWsgUm9vdCBDQTEVMBMGA1UEAwwMUGVhayBS
b290IENBMB4XDTIwMTIyNjE4MjcxOFoXDTIyMTIyNjE4MjcxOFowNTEQMA4GA1UE
ChMHVW5rbm93bjEQMA4GA1UECxMHVW5rbm93bjEPMA0GA1UEAxMGbGlnZXRpMIID
QjCCAjUGByqGSM44BAEwggIoAoIBAQCPeTXZuarpv6vtiHrPSVG28y7FnjuvNxjo
6sSWHz79NgbnQ1GpxBgzObgJ58KuHFObp0dbhdARrbi0eYd1SYRpXKwOjxSzNggo
oi/6JxEKPWKpk0U0CaD+aWxGWPhL3SCBnDcJoBBXsZWtzQAjPbpUhLYpH51kjviD
RIZ3l5zsBLQ0pqwudemYXeI9sCkvwRGMn/qdgYHnM423krcw17njSVkvaAmYchU5
Feo9a4tGU8YzRY+AOzKkwuDycpAlbk4/ijsIOKHEUOThjBopo33fXqFD3ktm/wSQ
PtXPFiPhWNSHxgjpfyEc2B3KI8tuOAdl+CLjQr5ITAV2OTlgHNZnAh0AuvaWpoV4
99/e5/pnyXfHhe8ysjO65YDAvNVpXQKCAQAWplxYIEhQcE51AqOXVwQNNNo6NHjB
VNTkpcAtJC7gT5bmHkvQkEq9rI837rHgnzGC0jyQQ8tkL4gAQWDt+coJsyB2p5wy
pifyRz6Rh5uixOdEvSCBVEy1W4AsNo0fqD7UielOD6BojjJCilx4xHjGjQUntxya
OrsLC+EsRGiWOefTznTbEBplqiuH9kxoJts+xy9LVZmDS7TtsC98kOmkltOlXVNb
6/xF1PYZ9j897buHOSXC8iTgdzEpbaiH7B5HSPh++1/et1SEMWsiMt7lU92vAhEr
DR8C2jCXMiT+J67ai51LKSLZuovjntnhA6Y8UoELxoi34u1DFuHvF9veA4IBBQAC
ggEAapLGQfoq6/1lbgxIlvMAMyG5k7W7A30F91adhsSDz3ORvqWsdflmV3zZdsRD
knQ4myWbpbrPzo1jGZC7bLU2UjbakHUVZZ4KM4KsiAswDkgNYf1piDu52yWnDVxA
xXS3PorCIKTvpCDLXTL9P6XTik/U1/pyUbdqoL6XF3KskyDeCGW0YFvzFgGWt+np
/GkPYptIZaC8+auUy7sTFVTCCN2FwSrQo7AdLW88mp/s1nb9xxQxwLmCmQ9m87z3
cO4BKD077Y98fyulMkCvIbebpoRm9JhPA+OmpSnmNBoCtumhfvBP4R1roDN6+ABy
Uqi2HNmY3VgG7xKrl30jlKBvb6NyMHAwDgYDVR0PAQH/BAQDAgWgMAkGA1UdEwQC
MAAwEwYDVR0lBAwwCgYIKwYBBQUHAwIwHQYDVR0OBBYEFBXn+/PlwWltl4tV3hrg
lL4AXSZ8MB8GA1UdIwQYMBaAFFvmTs4nEvaYXwFS1cDQ2Y7wMu9HMA0GCSqGSIb3
DQEBBQUAA4ICAQBYXv0kBhrtJateDTac5YL8iHsRLsklGd02JVp/c/Pkty8bS44Z
PJA9ClhaOsH00j91kxNDjHxFfiCaWypMdDp0/zL6YQSB9sptxxZr5u6q5CPVetJ2
2o6B5lFR3qqCbj1Ef0IpjVVyS2ddBR9viad11Om7xjkXRppTLzMzbN1OrpLinzl4
5SMJDgBy44f9+aLMtCD6JTNQLZV9zBdpddh9FeAotYUsURcMpn5CZ9ODZMyMeAlB
wjtxuXc7KG+ajJ1c8vfGS4YfhKjsDrBoik0rfBZDfs5LJe68HiKXRIx5haJ9FQWf
ddaFiTQ1+eJ6en5LGxbQ61hWBp0CBmun5jaJpfPlExo1Y9qQUdvjwT0vV0CSoQH8
vvgrfvmUEXcrAQ7D/EDEe9igm61o/t5EJxKogWmp8VuqInMtIsySRgUAQGvsPLMr
s+vNPJ+m9k9tPj3sWr3tvF+uVXFibQOBDFC0YNTNgn3+L10TLQ0aNkr+lTNKfGGJ
9MgeYzyo86Ckze3F8Gewr5qnK/BmvzhHj7bFN46uXd1G3F/6+LXZEg7N46k49Zbr
rRxDhDhZFld5FKGZUw09JJHLoc2L3QwAILCMueRz9WBUWLySIlViTbNjy1sjUMc3
6Q/v6pRqXiyC+56rTw037GQhjjJMdkxfIf2xd1AnIfan+Scj+MBZcWxv5w==
-----END CERTIFICATE-----
