Certificate:
    Data:
        Version: 3 (0x2)
        Serial Number: 4 (0x4)
        Signature Algorithm: sha1WithRSAEncryption
        Issuer: DC=com, DC=laboprogsegura.unavarra, O=Peak Engineering and Knowledge (121871), Inc., OU=Peak Root CA, CN=Peak Root CA
        Validity
            Not Before: Dec 27 18:52:34 2020 GMT
            Not After : Dec 27 18:52:34 2022 GMT
        Subject: O=Unknown, OU=Unknown, CN=admin
        Subject Public Key Info:
            Public Key Algorithm: dsaEncryption
                pub: 
                    13:55:28:db:69:56:59:74:57:3e:0d:2d:90:1d:ea:
                    9c:9c:f7:b7:f2:76:74:f9:e7:47:2e:9f:07:4b:22:
                    0f:eb:02:0b:32:30:61:0b:f2:cb:0d:92:fb:4b:72:
                    c9:ab:4f:a4:49:4c:20:b7:b2:40:be:85:e0:2b:5f:
                    e1:a6:89:bf:12:fd:7e:5f:1a:87:d9:f4:51:52:db:
                    da:b5:8d:c8:8f:e5:0f:96:c7:b4:60:57:a2:dc:7e:
                    1d:c8:4f:07:93:ba:1c:c2:84:77:3b:e9:36:78:d5:
                    af:ba:08:6e:5d:48:72:43:00:e7:cb:35:2c:ac:79:
                    25:97:6c:26:5d:e7:1c:48:2e:f5:13:2a:f4:bc:26:
                    6e:ef:09:3e:dd:1d:c8:0d:b7:15:1a:a3:b9:1d:ee:
                    83:28:00:3e:66:98:03:b9:77:b9:3b:00:8f:9d:50:
                    7f:9a:c8:d5:34:17:f5:7a:1e:06:3f:c5:5a:53:4a:
                    f3:f5:c0:7f:13:2e:ba:38:b1:b5:c4:04:73:3b:02:
                    73:bf:c3:d5:60:77:e3:2c:ef:20:fb:c2:a0:4c:37:
                    dd:50:49:43:ac:1c:0b:d6:8a:3c:4c:3b:53:16:f0:
                    c2:22:6d:5a:fc:3a:34:31:95:2b:6e:19:0d:00:76:
                    97:19:ee:03:49:3e:3e:ce:26:5e:e8:49:13:55:c1:
                    e2
                P:   
                    00:8f:79:35:d9:b9:aa:e9:bf:ab:ed:88:7a:cf:49:
                    51:b6:f3:2e:c5:9e:3b:af:37:18:e8:ea:c4:96:1f:
                    3e:fd:36:06:e7:43:51:a9:c4:18:33:39:b8:09:e7:
                    c2:ae:1c:53:9b:a7:47:5b:85:d0:11:ad:b8:b4:79:
                    87:75:49:84:69:5c:ac:0e:8f:14:b3:36:08:28:a2:
                    2f:fa:27:11:0a:3d:62:a9:93:45:34:09:a0:fe:69:
                    6c:46:58:f8:4b:dd:20:81:9c:37:09:a0:10:57:b1:
                    95:ad:cd:00:23:3d:ba:54:84:b6:29:1f:9d:64:8e:
                    f8:83:44:86:77:97:9c:ec:04:b4:34:a6:ac:2e:75:
                    e9:98:5d:e2:3d:b0:29:2f:c1:11:8c:9f:fa:9d:81:
                    81:e7:33:8d:b7:92:b7:30:d7:b9:e3:49:59:2f:68:
                    09:98:72:15:39:15:ea:3d:6b:8b:46:53:c6:33:45:
                    8f:80:3b:32:a4:c2:e0:f2:72:90:25:6e:4e:3f:8a:
                    3b:08:38:a1:c4:50:e4:e1:8c:1a:29:a3:7d:df:5e:
                    a1:43:de:4b:66:ff:04:90:3e:d5:cf:16:23:e1:58:
                    d4:87:c6:08:e9:7f:21:1c:d8:1d:ca:23:cb:6e:38:
                    07:65:f8:22:e3:42:be:48:4c:05:76:39:39:60:1c:
                    d6:67
                Q:   
                    00:ba:f6:96:a6:85:78:f7:df:de:e7:fa:67:c9:77:
                    c7:85:ef:32:b2:33:ba:e5:80:c0:bc:d5:69:5d
                G:   
                    16:a6:5c:58:20:48:50:70:4e:75:02:a3:97:57:04:
                    0d:34:da:3a:34:78:c1:54:d4:e4:a5:c0:2d:24:2e:
                    e0:4f:96:e6:1e:4b:d0:90:4a:bd:ac:8f:37:ee:b1:
                    e0:9f:31:82:d2:3c:90:43:cb:64:2f:88:00:41:60:
                    ed:f9:ca:09:b3:20:76:a7:9c:32:a6:27:f2:47:3e:
                    91:87:9b:a2:c4:e7:44:bd:20:81:54:4c:b5:5b:80:
                    2c:36:8d:1f:a8:3e:d4:89:e9:4e:0f:a0:68:8e:32:
                    42:8a:5c:78:c4:78:c6:8d:05:27:b7:1c:9a:3a:bb:
                    0b:0b:e1:2c:44:68:96:39:e7:d3:ce:74:db:10:1a:
                    65:aa:2b:87:f6:4c:68:26:db:3e:c7:2f:4b:55:99:
                    83:4b:b4:ed:b0:2f:7c:90:e9:a4:96:d3:a5:5d:53:
                    5b:eb:fc:45:d4:f6:19:f6:3f:3d:ed:bb:87:39:25:
                    c2:f2:24:e0:77:31:29:6d:a8:87:ec:1e:47:48:f8:
                    7e:fb:5f:de:b7:54:84:31:6b:22:32:de:e5:53:dd:
                    af:02:11:2b:0d:1f:02:da:30:97:32:24:fe:27:ae:
                    da:8b:9d:4b:29:22:d9:ba:8b:e3:9e:d9:e1:03:a6:
                    3c:52:81:0b:c6:88:b7:e2:ed:43:16:e1:ef:17:db:
                    de
        X509v3 extensions:
            X509v3 Key Usage: critical
                Digital Signature, Key Encipherment
            X509v3 Basic Constraints: 
                CA:FALSE
            X509v3 Extended Key Usage: 
                TLS Web Client Authentication
            X509v3 Subject Key Identifier: 
                CE:E3:10:38:62:DD:FE:FA:20:A5:F2:B3:05:D0:79:86:68:3F:E2:1F
            X509v3 Authority Key Identifier: 
                keyid:5B:E6:4E:CE:27:12:F6:98:5F:01:52:D5:C0:D0:D9:8E:F0:32:EF:47

    Signature Algorithm: sha1WithRSAEncryption
         83:00:45:d0:16:f5:c3:b6:d9:14:7b:d6:dd:a0:76:e1:61:a4:
         b6:54:a2:e7:4c:40:7e:81:f4:b0:f1:38:49:6d:88:5b:42:64:
         e4:50:d3:39:73:82:e6:01:59:ed:be:fd:f0:9c:7a:e0:53:d3:
         6b:9b:3b:eb:1e:1a:76:4b:4d:1b:f1:2f:d4:2f:53:d8:ef:3a:
         62:8b:96:0c:91:2b:6a:32:ed:0b:bc:31:04:31:49:7d:54:02:
         cb:a3:aa:4f:c7:ca:ab:81:cb:e0:0f:20:99:e5:9c:f4:14:0b:
         6f:91:65:e1:9d:18:87:21:85:17:4c:ba:39:73:bb:ea:50:66:
         07:b3:fc:5e:12:70:32:a1:c7:20:a9:a0:74:b8:3e:58:83:be:
         da:a8:7f:72:03:cb:cc:dd:6c:62:05:70:13:d6:3f:5d:4a:23:
         4a:ac:08:11:be:67:dd:de:c4:bf:c8:a2:e1:70:3b:1c:24:41:
         b2:fa:04:cc:d2:43:60:53:5c:a4:80:42:f1:1b:12:47:3c:20:
         6e:16:88:87:39:f1:82:e4:44:a0:82:be:42:02:18:a6:42:87:
         ee:e3:91:29:a4:02:d2:06:f7:34:0b:ae:a2:14:5f:0f:8f:21:
         4e:76:db:91:b5:1f:18:77:dc:74:da:51:bf:c8:06:99:fd:46:
         11:4c:e5:41:ae:a1:b4:09:1c:8c:64:91:5c:b2:70:e5:09:c6:
         13:02:a1:09:47:04:62:ae:63:61:2c:9e:84:29:42:11:42:aa:
         9a:6d:50:ab:dd:c8:ce:b7:7d:14:b7:e6:18:04:f9:25:8f:d5:
         5e:54:7b:91:02:41:69:40:70:02:3e:4a:69:89:af:4a:b3:d7:
         8e:bd:da:e5:56:d1:6d:8f:b9:b0:25:6a:74:b4:12:57:26:e5:
         38:55:3d:5b:fc:4f:a7:49:6c:c6:7a:61:c2:61:4f:53:ac:66:
         f8:74:de:0e:83:49:c0:1d:ef:2f:58:9e:21:85:d8:a2:4c:e3:
         ac:16:72:a4:28:7a:d3:47:eb:a6:b8:f8:c1:71:6e:ee:06:3f:
         8b:e5:2f:f4:06:88:a8:08:a9:c4:04:ea:32:d4:57:c5:1f:51:
         6f:6a:2b:25:c9:b2:72:56:1f:d1:40:21:6c:85:ce:0d:4e:93:
         66:c4:df:e0:2f:6f:d6:be:3f:46:97:09:e8:e0:ae:0b:09:d8:
         fb:51:fa:94:93:f7:a0:61:f0:e5:d6:43:31:6e:2f:4c:35:3b:
         2a:82:f9:56:d2:1a:1b:b4:16:1f:73:01:6f:ca:80:1c:de:ed:
         1f:33:1a:53:70:24:3f:d7:be:b0:00:d8:71:ad:da:4d:75:f8:
         14:f7:b7:fe:45:f4:f9:da
-----BEGIN CERTIFICATE-----
MIIG5jCCBM6gAwIBAgIBBDANBgkqhkiG9w0BAQUFADCBpDETMBEGCgmSJomT8ixk
ARkWA2NvbTEnMCUGCgmSJomT8ixkARkWF2xhYm9wcm9nc2VndXJhLnVuYXZhcnJh
MTYwNAYDVQQKDC1QZWFrIEVuZ2luZWVyaW5nIGFuZCBLbm93bGVkZ2UgKDEyMTg3
MSksIEluYy4xFTATBgNVBAsMDFBlYWsgUm9vdCBDQTEVMBMGA1UEAwwMUGVhayBS
b290IENBMB4XDTIwMTIyNzE4NTIzNFoXDTIyMTIyNzE4NTIzNFowNDEQMA4GA1UE
ChMHVW5rbm93bjEQMA4GA1UECxMHVW5rbm93bjEOMAwGA1UEAxMFYWRtaW4wggNC
MIICNQYHKoZIzjgEATCCAigCggEBAI95Ndm5qum/q+2Ies9JUbbzLsWeO683GOjq
xJYfPv02BudDUanEGDM5uAnnwq4cU5unR1uF0BGtuLR5h3VJhGlcrA6PFLM2CCii
L/onEQo9YqmTRTQJoP5pbEZY+EvdIIGcNwmgEFexla3NACM9ulSEtikfnWSO+INE
hneXnOwEtDSmrC516Zhd4j2wKS/BEYyf+p2BgeczjbeStzDXueNJWS9oCZhyFTkV
6j1ri0ZTxjNFj4A7MqTC4PJykCVuTj+KOwg4ocRQ5OGMGimjfd9eoUPeS2b/BJA+
1c8WI+FY1IfGCOl/IRzYHcojy244B2X4IuNCvkhMBXY5OWAc1mcCHQC69pamhXj3
397n+mfJd8eF7zKyM7rlgMC81WldAoIBABamXFggSFBwTnUCo5dXBA002jo0eMFU
1OSlwC0kLuBPluYeS9CQSr2sjzfuseCfMYLSPJBDy2QviABBYO35ygmzIHannDKm
J/JHPpGHm6LE50S9IIFUTLVbgCw2jR+oPtSJ6U4PoGiOMkKKXHjEeMaNBSe3HJo6
uwsL4SxEaJY559POdNsQGmWqK4f2TGgm2z7HL0tVmYNLtO2wL3yQ6aSW06VdU1vr
/EXU9hn2Pz3tu4c5JcLyJOB3MSltqIfsHkdI+H77X963VIQxayIy3uVT3a8CESsN
HwLaMJcyJP4nrtqLnUspItm6i+Oe2eEDpjxSgQvGiLfi7UMW4e8X294DggEFAAKC
AQATVSjbaVZZdFc+DS2QHeqcnPe38nZ0+edHLp8HSyIP6wILMjBhC/LLDZL7S3LJ
q0+kSUwgt7JAvoXgK1/hpom/Ev1+XxqH2fRRUtvatY3Ij+UPlse0YFei3H4dyE8H
k7ocwoR3O+k2eNWvughuXUhyQwDnyzUsrHkll2wmXeccSC71Eyr0vCZu7wk+3R3I
DbcVGqO5He6DKAA+ZpgDuXe5OwCPnVB/msjVNBf1eh4GP8VaU0rz9cB/Ey66OLG1
xARzOwJzv8PVYHfjLO8g+8KgTDfdUElDrBwL1oo8TDtTFvDCIm1a/Do0MZUrbhkN
AHaXGe4DST4+ziZe6EkTVcHio3IwcDAOBgNVHQ8BAf8EBAMCBaAwCQYDVR0TBAIw
ADATBgNVHSUEDDAKBggrBgEFBQcDAjAdBgNVHQ4EFgQUzuMQOGLd/vogpfKzBdB5
hmg/4h8wHwYDVR0jBBgwFoAUW+ZOzicS9phfAVLVwNDZjvAy70cwDQYJKoZIhvcN
AQEFBQADggIBAIMARdAW9cO22RR71t2gduFhpLZUoudMQH6B9LDxOEltiFtCZORQ
0zlzguYBWe2+/fCceuBT02ubO+seGnZLTRvxL9QvU9jvOmKLlgyRK2oy7Qu8MQQx
SX1UAsujqk/HyquBy+APIJnlnPQUC2+RZeGdGIchhRdMujlzu+pQZgez/F4ScDKh
xyCpoHS4PliDvtqof3IDy8zdbGIFcBPWP11KI0qsCBG+Z93exL/IouFwOxwkQbL6
BMzSQ2BTXKSAQvEbEkc8IG4WiIc58YLkRKCCvkICGKZCh+7jkSmkAtIG9zQLrqIU
Xw+PIU5225G1Hxh33HTaUb/IBpn9RhFM5UGuobQJHIxkkVyycOUJxhMCoQlHBGKu
Y2EsnoQpQhFCqpptUKvdyM63fRS35hgE+SWP1V5Ue5ECQWlAcAI+SmmJr0qz1469
2uVW0W2PubAlanS0Elcm5ThVPVv8T6dJbMZ6YcJhT1OsZvh03g6DScAd7y9YniGF
2KJM46wWcqQoetNH66a4+MFxbu4GP4vlL/QGiKgIqcQE6jLUV8UfUW9qKyXJsnJW
H9FAIWyFzg1Ok2bE3+Avb9a+P0aXCejgrgsJ2PtR+pST96Bh8OXWQzFuL0w1OyqC
+VbSGhu0Fh9zAW/KgBze7R8zGlNwJD/XvrAA2HGt2k11+BT3t/5F9Pna
-----END CERTIFICATE-----
