Certificate:
    Data:
        Version: 3 (0x2)
        Serial Number: 3 (0x3)
        Signature Algorithm: sha1WithRSAEncryption
        Issuer: DC=com, DC=laboprogsegura.unavarra, O=Peak Engineering and Knowledge (121871), Inc., OU=Peak Root CA, CN=Peak Root CA
        Validity
            Not Before: Dec 26 18:29:18 2020 GMT
            Not After : Dec 26 18:29:18 2022 GMT
        Subject: O=Unknown, OU=Unknown, CN=geyer
        Subject Public Key Info:
            Public Key Algorithm: dsaEncryption
                pub: 
                    44:4a:79:e9:ad:f3:16:08:df:66:19:e2:a8:ac:ad:
                    a8:ab:84:c6:78:5e:ac:af:f6:fa:88:d8:85:8f:d2:
                    7b:67:34:f3:5e:e9:4a:cc:53:11:05:0b:1c:50:91:
                    b1:6d:a0:ae:50:d5:02:09:c3:c8:ed:2c:ba:aa:a2:
                    b7:79:46:cc:da:75:88:40:48:01:75:45:86:c7:12:
                    3d:1c:b5:f7:0c:56:bb:8f:57:a4:69:44:db:de:53:
                    99:74:23:7a:9e:12:c2:74:9b:f5:c7:6c:af:be:04:
                    7e:0e:cc:2c:eb:29:06:04:df:fb:85:0a:1d:d9:f1:
                    db:d4:9c:b4:96:b2:dd:c2:fe:3b:34:62:8f:33:86:
                    59:9d:00:df:a1:7c:55:75:88:08:08:59:e6:c5:61:
                    72:92:9b:bd:18:8e:56:26:6f:f3:8e:3c:66:90:22:
                    8c:fe:fe:f4:b2:fd:3d:82:74:ba:66:c8:70:58:65:
                    71:f0:09:ae:ec:cc:e1:7f:00:fb:36:cc:32:32:26:
                    ec:91:ba:7e:41:78:f6:11:23:dd:4c:6e:9c:2a:06:
                    e5:9b:c6:33:f4:0f:86:0b:de:5c:15:74:7a:4f:0a:
                    12:47:a4:4b:c1:ee:c1:ab:ee:27:5d:42:9c:47:dc:
                    91:ca:7b:76:6f:88:b1:11:f3:f5:e3:c4:b5:b8:91:
                    cb
                P:   
                    00:8f:79:35:d9:b9:aa:e9:bf:ab:ed:88:7a:cf:49:
                    51:b6:f3:2e:c5:9e:3b:af:37:18:e8:ea:c4:96:1f:
                    3e:fd:36:06:e7:43:51:a9:c4:18:33:39:b8:09:e7:
                    c2:ae:1c:53:9b:a7:47:5b:85:d0:11:ad:b8:b4:79:
                    87:75:49:84:69:5c:ac:0e:8f:14:b3:36:08:28:a2:
                    2f:fa:27:11:0a:3d:62:a9:93:45:34:09:a0:fe:69:
                    6c:46:58:f8:4b:dd:20:81:9c:37:09:a0:10:57:b1:
                    95:ad:cd:00:23:3d:ba:54:84:b6:29:1f:9d:64:8e:
                    f8:83:44:86:77:97:9c:ec:04:b4:34:a6:ac:2e:75:
                    e9:98:5d:e2:3d:b0:29:2f:c1:11:8c:9f:fa:9d:81:
                    81:e7:33:8d:b7:92:b7:30:d7:b9:e3:49:59:2f:68:
                    09:98:72:15:39:15:ea:3d:6b:8b:46:53:c6:33:45:
                    8f:80:3b:32:a4:c2:e0:f2:72:90:25:6e:4e:3f:8a:
                    3b:08:38:a1:c4:50:e4:e1:8c:1a:29:a3:7d:df:5e:
                    a1:43:de:4b:66:ff:04:90:3e:d5:cf:16:23:e1:58:
                    d4:87:c6:08:e9:7f:21:1c:d8:1d:ca:23:cb:6e:38:
                    07:65:f8:22:e3:42:be:48:4c:05:76:39:39:60:1c:
                    d6:67
                Q:   
                    00:ba:f6:96:a6:85:78:f7:df:de:e7:fa:67:c9:77:
                    c7:85:ef:32:b2:33:ba:e5:80:c0:bc:d5:69:5d
                G:   
                    16:a6:5c:58:20:48:50:70:4e:75:02:a3:97:57:04:
                    0d:34:da:3a:34:78:c1:54:d4:e4:a5:c0:2d:24:2e:
                    e0:4f:96:e6:1e:4b:d0:90:4a:bd:ac:8f:37:ee:b1:
                    e0:9f:31:82:d2:3c:90:43:cb:64:2f:88:00:41:60:
                    ed:f9:ca:09:b3:20:76:a7:9c:32:a6:27:f2:47:3e:
                    91:87:9b:a2:c4:e7:44:bd:20:81:54:4c:b5:5b:80:
                    2c:36:8d:1f:a8:3e:d4:89:e9:4e:0f:a0:68:8e:32:
                    42:8a:5c:78:c4:78:c6:8d:05:27:b7:1c:9a:3a:bb:
                    0b:0b:e1:2c:44:68:96:39:e7:d3:ce:74:db:10:1a:
                    65:aa:2b:87:f6:4c:68:26:db:3e:c7:2f:4b:55:99:
                    83:4b:b4:ed:b0:2f:7c:90:e9:a4:96:d3:a5:5d:53:
                    5b:eb:fc:45:d4:f6:19:f6:3f:3d:ed:bb:87:39:25:
                    c2:f2:24:e0:77:31:29:6d:a8:87:ec:1e:47:48:f8:
                    7e:fb:5f:de:b7:54:84:31:6b:22:32:de:e5:53:dd:
                    af:02:11:2b:0d:1f:02:da:30:97:32:24:fe:27:ae:
                    da:8b:9d:4b:29:22:d9:ba:8b:e3:9e:d9:e1:03:a6:
                    3c:52:81:0b:c6:88:b7:e2:ed:43:16:e1:ef:17:db:
                    de
        X509v3 extensions:
            X509v3 Key Usage: critical
                Digital Signature, Key Encipherment
            X509v3 Basic Constraints: 
                CA:FALSE
            X509v3 Extended Key Usage: 
                TLS Web Client Authentication
            X509v3 Subject Key Identifier: 
                3A:FD:BB:EC:8E:6D:69:FB:CE:C7:47:45:88:1F:96:60:C5:3A:E4:23
            X509v3 Authority Key Identifier: 
                keyid:5B:E6:4E:CE:27:12:F6:98:5F:01:52:D5:C0:D0:D9:8E:F0:32:EF:47

    Signature Algorithm: sha1WithRSAEncryption
         42:e5:5a:d7:23:2e:1c:8b:9c:21:f0:cd:12:6c:e3:6a:54:30:
         7f:4a:26:45:b7:68:00:ad:f4:d1:48:59:37:22:00:ef:4b:40:
         e0:78:a0:ae:4b:99:f4:17:ba:79:4c:4f:eb:83:ac:b1:e8:0d:
         40:93:23:78:23:98:be:dd:8e:1e:6f:15:c4:ec:6b:ce:4c:49:
         fb:40:f9:72:f7:14:8c:fd:38:9f:87:f9:66:c9:a5:cb:4a:08:
         d0:80:dd:3a:ef:6f:38:1e:7d:3e:9a:eb:f5:ec:4f:9d:e1:3b:
         70:43:b1:9d:f9:76:6b:72:f4:5a:57:ec:cb:07:90:94:e6:83:
         8a:18:24:47:bf:78:6d:05:af:b0:7d:9f:98:a9:9d:12:0a:ad:
         44:fe:b3:92:cc:0c:2c:78:28:fe:13:19:98:0d:fb:d9:ee:7e:
         b0:de:53:e4:e1:e3:b2:d1:48:7d:25:4b:4a:6c:cc:e6:70:a3:
         26:e0:2e:29:9a:e3:4a:9f:9e:47:44:06:32:75:17:79:d0:6f:
         68:e3:ee:f5:09:2f:04:26:d9:d2:21:bf:19:d4:67:e1:78:78:
         07:bc:3b:f0:6d:b8:f2:cf:5e:9d:c4:38:29:82:5c:15:1d:1b:
         6d:04:69:16:77:58:4a:90:1e:ab:dd:4f:6a:f5:e8:0b:cd:df:
         03:54:75:68:05:a3:18:32:e4:d5:17:f1:8c:ca:10:91:02:2b:
         2f:48:21:63:ef:dc:4c:57:22:2a:fd:3f:29:14:8a:df:38:89:
         c2:08:24:e9:3b:b9:60:5f:9d:75:b7:08:67:60:2d:d1:07:17:
         bf:43:e9:b4:db:c6:ad:f5:f4:68:ba:9b:d0:23:e9:46:d9:48:
         74:ba:e2:dc:9b:ad:cc:d1:b5:a4:f3:6f:22:a1:be:c7:2d:88:
         bf:f2:e9:4c:65:e6:ea:08:01:eb:d2:81:50:40:7b:51:54:a0:
         47:6a:1e:7d:32:ee:a2:49:1b:d3:e4:66:61:26:78:26:67:69:
         a2:ff:cc:b0:b4:09:7e:97:22:00:6a:08:a2:d0:6a:fd:8f:1c:
         cc:7c:fa:75:6a:1e:72:63:c8:7f:bf:b0:79:5e:a6:92:a9:2d:
         74:9e:0c:24:1d:07:42:89:48:f3:b9:ca:a2:98:6a:d9:37:de:
         90:da:23:f6:0f:a9:c2:1b:94:07:e5:59:b8:65:1b:fd:a2:cc:
         66:74:87:f5:09:47:d8:d3:72:e5:b4:b1:84:0a:d6:d1:f4:15:
         76:7c:bc:54:70:3d:d5:12:87:29:9d:c3:66:1a:98:10:ff:4f:
         c0:58:d4:b5:e5:88:3e:eb:28:c7:8c:dd:aa:26:29:26:3f:99:
         b2:22:02:c3:94:85:e6:41
-----BEGIN CERTIFICATE-----
MIIG5jCCBM6gAwIBAgIBAzANBgkqhkiG9w0BAQUFADCBpDETMBEGCgmSJomT8ixk
ARkWA2NvbTEnMCUGCgmSJomT8ixkARkWF2xhYm9wcm9nc2VndXJhLnVuYXZhcnJh
MTYwNAYDVQQKDC1QZWFrIEVuZ2luZWVyaW5nIGFuZCBLbm93bGVkZ2UgKDEyMTg3
MSksIEluYy4xFTATBgNVBAsMDFBlYWsgUm9vdCBDQTEVMBMGA1UEAwwMUGVhayBS
b290IENBMB4XDTIwMTIyNjE4MjkxOFoXDTIyMTIyNjE4MjkxOFowNDEQMA4GA1UE
ChMHVW5rbm93bjEQMA4GA1UECxMHVW5rbm93bjEOMAwGA1UEAxMFZ2V5ZXIwggNC
MIICNQYHKoZIzjgEATCCAigCggEBAI95Ndm5qum/q+2Ies9JUbbzLsWeO683GOjq
xJYfPv02BudDUanEGDM5uAnnwq4cU5unR1uF0BGtuLR5h3VJhGlcrA6PFLM2CCii
L/onEQo9YqmTRTQJoP5pbEZY+EvdIIGcNwmgEFexla3NACM9ulSEtikfnWSO+INE
hneXnOwEtDSmrC516Zhd4j2wKS/BEYyf+p2BgeczjbeStzDXueNJWS9oCZhyFTkV
6j1ri0ZTxjNFj4A7MqTC4PJykCVuTj+KOwg4ocRQ5OGMGimjfd9eoUPeS2b/BJA+
1c8WI+FY1IfGCOl/IRzYHcojy244B2X4IuNCvkhMBXY5OWAc1mcCHQC69pamhXj3
397n+mfJd8eF7zKyM7rlgMC81WldAoIBABamXFggSFBwTnUCo5dXBA002jo0eMFU
1OSlwC0kLuBPluYeS9CQSr2sjzfuseCfMYLSPJBDy2QviABBYO35ygmzIHannDKm
J/JHPpGHm6LE50S9IIFUTLVbgCw2jR+oPtSJ6U4PoGiOMkKKXHjEeMaNBSe3HJo6
uwsL4SxEaJY559POdNsQGmWqK4f2TGgm2z7HL0tVmYNLtO2wL3yQ6aSW06VdU1vr
/EXU9hn2Pz3tu4c5JcLyJOB3MSltqIfsHkdI+H77X963VIQxayIy3uVT3a8CESsN
HwLaMJcyJP4nrtqLnUspItm6i+Oe2eEDpjxSgQvGiLfi7UMW4e8X294DggEFAAKC
AQBESnnprfMWCN9mGeKorK2oq4TGeF6sr/b6iNiFj9J7ZzTzXulKzFMRBQscUJGx
baCuUNUCCcPI7Sy6qqK3eUbM2nWIQEgBdUWGxxI9HLX3DFa7j1ekaUTb3lOZdCN6
nhLCdJv1x2yvvgR+Dsws6ykGBN/7hQod2fHb1Jy0lrLdwv47NGKPM4ZZnQDfoXxV
dYgICFnmxWFykpu9GI5WJm/zjjxmkCKM/v70sv09gnS6ZshwWGVx8Amu7MzhfwD7
NswyMibskbp+QXj2ESPdTG6cKgblm8Yz9A+GC95cFXR6TwoSR6RLwe7Bq+4nXUKc
R9yRynt2b4ixEfP148S1uJHLo3IwcDAOBgNVHQ8BAf8EBAMCBaAwCQYDVR0TBAIw
ADATBgNVHSUEDDAKBggrBgEFBQcDAjAdBgNVHQ4EFgQUOv277I5tafvOx0dFiB+W
YMU65CMwHwYDVR0jBBgwFoAUW+ZOzicS9phfAVLVwNDZjvAy70cwDQYJKoZIhvcN
AQEFBQADggIBAELlWtcjLhyLnCHwzRJs42pUMH9KJkW3aACt9NFIWTciAO9LQOB4
oK5LmfQXunlMT+uDrLHoDUCTI3gjmL7djh5vFcTsa85MSftA+XL3FIz9OJ+H+WbJ
pctKCNCA3TrvbzgefT6a6/XsT53hO3BDsZ35dmty9FpX7MsHkJTmg4oYJEe/eG0F
r7B9n5ipnRIKrUT+s5LMDCx4KP4TGZgN+9nufrDeU+Th47LRSH0lS0pszOZwoybg
Lima40qfnkdEBjJ1F3nQb2jj7vUJLwQm2dIhvxnUZ+F4eAe8O/BtuPLPXp3EOCmC
XBUdG20EaRZ3WEqQHqvdT2r16AvN3wNUdWgFoxgy5NUX8YzKEJECKy9IIWPv3ExX
Iir9PykUit84icIIJOk7uWBfnXW3CGdgLdEHF79D6bTbxq319Gi6m9Aj6UbZSHS6
4tybrczRtaTzbyKhvsctiL/y6Uxl5uoIAevSgVBAe1FUoEdqHn0y7qJJG9PkZmEm
eCZnaaL/zLC0CX6XIgBqCKLQav2PHMx8+nVqHnJjyH+/sHleppKpLXSeDCQdB0KJ
SPO5yqKYatk33pDaI/YPqcIblAflWbhlG/2izGZ0h/UJR9jTcuW0sYQK1tH0FXZ8
vFRwPdUShymdw2YamBD/T8BY1LXliD7rKMeM3aomKSY/mbIiAsOUheZB
-----END CERTIFICATE-----
