Certificate:
    Data:
        Version: 3 (0x2)
        Serial Number: 1 (0x1)
        Signature Algorithm: sha1WithRSAEncryption
        Issuer: DC=com, DC=laboprogsegura.unavarra, O=Peak Engineering and Knowledge (121871), Inc., OU=Peak Root CA, CN=Peak Root CA
        Validity
            Not Before: Dec 26 18:06:41 2020 GMT
            Not After : Dec 26 18:06:41 2030 GMT
        Subject: DC=com, DC=laboprogsegura.unavarra, O=Peak Engineering and Knowledge (121871), Inc., OU=Peak Root CA, CN=Peak Root CA
        Subject Public Key Info:
            Public Key Algorithm: rsaEncryption
                RSA Public-Key: (4096 bit)
                Modulus:
                    00:a1:f8:5c:a6:7e:13:22:3c:97:27:bf:68:68:d5:
                    12:7a:c3:39:46:be:46:9a:16:d0:46:47:98:7a:c5:
                    bf:da:02:1a:0d:c8:58:67:dc:b8:8a:7f:1b:50:9a:
                    fa:34:0b:9b:15:bd:35:72:cd:1b:00:82:30:d1:34:
                    bd:a3:55:d5:8c:c3:1f:e1:18:4b:da:84:72:48:22:
                    d4:b8:f5:7b:bd:7e:47:6b:67:d4:33:42:f7:3d:f5:
                    fb:6f:d2:cc:2b:2a:16:a5:bb:35:3c:49:6b:34:b6:
                    a1:b7:ab:91:86:6d:aa:8d:6f:75:ad:0c:56:40:f0:
                    68:3c:db:8c:2b:67:cd:28:f8:c1:ba:f4:3b:a3:e7:
                    f7:26:22:ac:05:7e:d4:b7:81:ad:af:6f:2f:8b:da:
                    68:64:c7:e9:a4:2d:28:67:4d:e4:01:8e:ab:84:06:
                    5d:21:d3:1d:c7:cf:78:fa:e3:11:ad:82:cb:11:2f:
                    fa:61:60:c5:18:c9:4d:01:76:fc:b8:7d:82:11:cc:
                    6c:3a:e9:4f:1f:39:6d:63:49:3e:95:f7:5f:9b:b7:
                    d2:1b:75:8e:2e:dd:f1:61:67:c3:e1:24:0a:42:eb:
                    29:4b:56:b8:a2:c4:38:be:e8:d4:c9:4e:ea:48:2f:
                    17:1d:a4:a4:f5:e3:0a:28:58:ea:d4:d7:f6:60:b2:
                    ef:8b:4d:8d:72:9c:b4:99:47:6b:9f:f0:fb:ea:35:
                    be:3c:3d:b0:03:e1:6a:87:1b:b2:dd:79:62:c0:c5:
                    fa:c1:2e:47:ab:1f:06:8b:7e:ba:31:0d:c4:f8:c7:
                    94:e8:98:b3:4b:a0:64:c5:67:dd:d9:21:b0:77:ac:
                    e3:21:10:07:d3:7e:48:67:1a:4e:2e:a7:78:a0:e9:
                    38:51:b8:2e:30:dd:18:8b:1c:eb:46:dc:32:05:c6:
                    db:f7:b2:05:31:85:6a:55:b5:71:8c:94:e1:ff:37:
                    7c:69:c7:bc:fc:a6:1f:4a:21:de:7b:f4:1d:d6:96:
                    82:df:b7:22:c5:9b:91:df:7e:af:65:7c:5d:07:14:
                    6c:06:e5:a5:bf:19:74:71:eb:8b:2a:86:3e:d4:f8:
                    a8:9b:ee:d5:dd:7c:01:3a:50:13:1a:c6:e7:d5:c5:
                    2d:aa:79:b9:f1:cf:85:c4:fd:57:25:5c:14:98:60:
                    63:aa:5a:91:11:70:7f:0d:81:3d:d8:e9:a3:74:8a:
                    89:69:6e:d0:71:fd:1e:18:ed:38:70:a2:7a:48:d6:
                    26:bf:02:24:24:76:d3:6e:11:02:0b:82:b7:ac:e7:
                    ae:da:73:07:b6:a7:4b:ca:e6:27:56:81:cb:52:38:
                    29:a7:82:bd:fc:eb:4e:d1:4c:66:b5:0d:e9:ae:43:
                    ad:d3:c9
                Exponent: 65537 (0x10001)
        X509v3 extensions:
            X509v3 Key Usage: critical
                Certificate Sign, CRL Sign
            X509v3 Basic Constraints: critical
                CA:TRUE
            X509v3 Subject Key Identifier: 
                5B:E6:4E:CE:27:12:F6:98:5F:01:52:D5:C0:D0:D9:8E:F0:32:EF:47
            X509v3 Authority Key Identifier: 
                keyid:5B:E6:4E:CE:27:12:F6:98:5F:01:52:D5:C0:D0:D9:8E:F0:32:EF:47

    Signature Algorithm: sha1WithRSAEncryption
         5b:36:2a:90:b3:15:15:27:bf:e6:19:bb:9f:7c:df:87:e0:76:
         18:75:9b:97:36:b5:dd:a1:9d:4f:81:7c:f1:76:34:dc:65:0d:
         d6:41:17:70:ab:fe:af:f8:70:7a:77:f5:03:a0:40:07:6f:09:
         8b:2d:62:9b:d1:1b:af:96:07:cc:54:45:2b:e9:19:c8:f3:2f:
         8c:bb:90:fa:5a:68:e6:d7:4c:1f:f5:e6:38:7d:4a:d7:ca:fd:
         bd:72:84:da:d6:79:bb:e6:bd:3e:11:d2:df:74:80:0b:2a:db:
         40:45:01:44:ee:6b:a5:ea:74:7a:71:4c:ee:39:d7:36:94:1b:
         1a:f7:d0:c2:0f:1b:45:29:78:a7:c1:da:c6:ed:3d:ca:c1:d0:
         c7:a0:bd:db:31:f1:08:52:77:5b:43:16:0e:74:92:05:b9:c3:
         5b:b2:a4:1b:88:1f:e6:ae:33:4a:44:d5:71:72:0d:88:80:cc:
         f8:83:34:b9:0b:8e:35:68:63:99:1c:7b:44:cc:f2:8a:21:14:
         cd:15:e6:c6:3a:e7:e3:8e:b6:81:18:7f:37:2c:48:91:b9:44:
         69:c6:a2:0f:cf:a6:32:44:2f:c3:d9:6f:60:da:eb:3a:7a:84:
         2c:bb:91:ee:a4:01:e4:53:32:3a:8e:cc:91:d2:66:02:32:86:
         45:b6:7c:16:e2:a4:16:bf:bc:c0:3f:60:bf:f2:3a:c5:89:30:
         22:f5:de:10:79:86:6e:12:5e:13:8a:fa:43:d3:6b:8f:e7:e4:
         68:0f:e2:ca:76:6a:a0:e1:c2:cf:97:da:89:1b:5c:3c:98:90:
         f8:3f:c7:75:a9:e0:c6:00:0b:f4:de:aa:b4:9e:20:89:c6:df:
         84:1a:0e:3b:07:c2:74:9c:2b:5c:14:6f:2b:53:52:55:99:fc:
         9b:f5:4a:67:cb:23:6c:ca:a7:69:8c:a8:7f:30:03:97:2b:35:
         82:8a:80:37:df:b4:63:d2:a4:3b:79:1d:c6:af:54:cf:cb:2f:
         b0:9a:89:59:d5:5b:ec:0f:70:40:4c:5d:55:5a:73:d3:b1:a3:
         da:1a:41:d5:3b:a8:95:39:46:95:0a:1a:36:02:a7:cc:b0:9a:
         b1:6a:24:b6:ae:84:be:d8:75:82:ec:c1:63:01:81:e9:2e:4e:
         52:3d:a3:2a:06:b5:54:70:77:f1:ec:13:a1:0d:c6:73:92:ff:
         15:ee:75:75:e9:f7:9b:69:70:9b:f0:f0:4a:b2:87:e2:8a:2f:
         1d:93:04:09:5f:37:df:61:30:60:1a:9d:53:97:76:96:fe:7f:
         32:3c:5b:11:d1:9c:e5:e2:24:9a:6b:3d:74:67:bb:5a:a6:f8:
         08:4c:c5:52:7f:df:c6:11
-----BEGIN CERTIFICATE-----
MIIGKDCCBBCgAwIBAgIBATANBgkqhkiG9w0BAQUFADCBpDETMBEGCgmSJomT8ixk
ARkWA2NvbTEnMCUGCgmSJomT8ixkARkWF2xhYm9wcm9nc2VndXJhLnVuYXZhcnJh
MTYwNAYDVQQKDC1QZWFrIEVuZ2luZWVyaW5nIGFuZCBLbm93bGVkZ2UgKDEyMTg3
MSksIEluYy4xFTATBgNVBAsMDFBlYWsgUm9vdCBDQTEVMBMGA1UEAwwMUGVhayBS
b290IENBMB4XDTIwMTIyNjE4MDY0MVoXDTMwMTIyNjE4MDY0MVowgaQxEzARBgoJ
kiaJk/IsZAEZFgNjb20xJzAlBgoJkiaJk/IsZAEZFhdsYWJvcHJvZ3NlZ3VyYS51
bmF2YXJyYTE2MDQGA1UECgwtUGVhayBFbmdpbmVlcmluZyBhbmQgS25vd2xlZGdl
ICgxMjE4NzEpLCBJbmMuMRUwEwYDVQQLDAxQZWFrIFJvb3QgQ0ExFTATBgNVBAMM
DFBlYWsgUm9vdCBDQTCCAiIwDQYJKoZIhvcNAQEBBQADggIPADCCAgoCggIBAKH4
XKZ+EyI8lye/aGjVEnrDOUa+RpoW0EZHmHrFv9oCGg3IWGfcuIp/G1Ca+jQLmxW9
NXLNGwCCMNE0vaNV1YzDH+EYS9qEckgi1Lj1e71+R2tn1DNC9z31+2/SzCsqFqW7
NTxJazS2oberkYZtqo1vda0MVkDwaDzbjCtnzSj4wbr0O6Pn9yYirAV+1LeBra9v
L4vaaGTH6aQtKGdN5AGOq4QGXSHTHcfPePrjEa2CyxEv+mFgxRjJTQF2/Lh9ghHM
bDrpTx85bWNJPpX3X5u30ht1ji7d8WFnw+EkCkLrKUtWuKLEOL7o1MlO6kgvFx2k
pPXjCihY6tTX9mCy74tNjXKctJlHa5/w++o1vjw9sAPhaocbst15YsDF+sEuR6sf
Bot+ujENxPjHlOiYs0ugZMVn3dkhsHes4yEQB9N+SGcaTi6neKDpOFG4LjDdGIsc
60bcMgXG2/eyBTGFalW1cYyU4f83fGnHvPymH0oh3nv0HdaWgt+3IsWbkd9+r2V8
XQcUbAblpb8ZdHHriyqGPtT4qJvu1d18ATpQExrG59XFLap5ufHPhcT9VyVcFJhg
Y6pakRFwfw2BPdjpo3SKiWlu0HH9HhjtOHCiekjWJr8CJCR2024RAguCt6znrtpz
B7anS8rmJ1aBy1I4KaeCvfzrTtFMZrUN6a5DrdPJAgMBAAGjYzBhMA4GA1UdDwEB
/wQEAwIBBjAPBgNVHRMBAf8EBTADAQH/MB0GA1UdDgQWBBRb5k7OJxL2mF8BUtXA
0NmO8DLvRzAfBgNVHSMEGDAWgBRb5k7OJxL2mF8BUtXA0NmO8DLvRzANBgkqhkiG
9w0BAQUFAAOCAgEAWzYqkLMVFSe/5hm7n3zfh+B2GHWblza13aGdT4F88XY03GUN
1kEXcKv+r/hwenf1A6BAB28Jiy1im9Ebr5YHzFRFK+kZyPMvjLuQ+lpo5tdMH/Xm
OH1K18r9vXKE2tZ5u+a9PhHS33SACyrbQEUBRO5rpep0enFM7jnXNpQbGvfQwg8b
RSl4p8Haxu09ysHQx6C92zHxCFJ3W0MWDnSSBbnDW7KkG4gf5q4zSkTVcXINiIDM
+IM0uQuONWhjmRx7RMzyiiEUzRXmxjrn4462gRh/NyxIkblEacaiD8+mMkQvw9lv
YNrrOnqELLuR7qQB5FMyOo7MkdJmAjKGRbZ8FuKkFr+8wD9gv/I6xYkwIvXeEHmG
bhJeE4r6Q9Nrj+fkaA/iynZqoOHCz5faiRtcPJiQ+D/HdangxgAL9N6qtJ4gicbf
hBoOOwfCdJwrXBRvK1NSVZn8m/VKZ8sjbMqnaYyofzADlys1goqAN9+0Y9KkO3kd
xq9Uz8svsJqJWdVb7A9wQExdVVpz07Gj2hpB1TuolTlGlQoaNgKnzLCasWoktq6E
vth1guzBYwGB6S5OUj2jKga1VHB38ewToQ3Gc5L/Fe51den3m2lwm/DwSrKH4oov
HZMECV8332EwYBqdU5d2lv5/MjxbEdGc5eIkmms9dGe7Wqb4CEzFUn/fxhE=
-----END CERTIFICATE-----
